target datalayout = "e-m:e-p270:32:32-p271:32:32-p272:64:64-i64:64-i128:128-f80:128-n8:16:32:64-S128"
target triple = "x86_64-pc-linux-gnu"

%union.pthread_cond_t = type { %struct.__pthread_cond_s }
%struct.__pthread_cond_s = type { %union.__atomic_wide_counter, %union.__atomic_wide_counter, [2 x i32], [2 x i32], i32, i32, [2 x i32] }
%union.__atomic_wide_counter = type { i64 }
%struct.CPOOL = type { i32, i32, ptr, ptr }
%struct.CP_ENTRY = type { ptr, ptr, i32, i64, i8, i8, i8 }

@cp = dso_local global ptr null, align 8
@quitting = internal global i32 1, align 4
@probe_th = internal global i64 0, align 8
@.str.6 = private unnamed_addr constant [34 x i8] c"Killing the monitor and stopping\0A\00", align 1
@mon_cond = internal global %union.pthread_cond_t zeroinitializer, align 8

; Function Attrs: nounwind uwtable
define dso_local void @cpool_free() #0 {
  %1 = alloca i32, align 4
  call void @llvm.lifetime.start.p0(i64 4, ptr %1) #9
  %2 = load i32, ptr @quitting, align 4, !tbaa !9
  %3 = icmp ne i32 %2, 0
  br i1 %3, label %9, label %4

4:                                                ; preds = %0
  %5 = call i32 (i32, ptr, ...) @logg(i32 noundef 2, ptr noundef @.str.6)
  store i32 1, ptr @quitting, align 4, !tbaa !9
  %6 = call i32 @pthread_cond_signal(ptr noundef @mon_cond) #9
  %7 = load i64, ptr @probe_th, align 8, !tbaa !51
  %8 = call i32 @pthread_join(i64 noundef %7, ptr noundef null)
  br label %9

9:                                                ; preds = %4, %0
  %10 = load ptr, ptr @cp, align 8, !tbaa !11
  %11 = icmp ne ptr %10, null
  br i1 %11, label %12, label %76

12:                                               ; preds = %9
  %13 = load ptr, ptr @cp, align 8, !tbaa !11
  %14 = getelementptr inbounds nuw %struct.CPOOL, ptr %13, i32 0, i32 3
  %15 = load ptr, ptr %14, align 8, !tbaa !26
  %16 = icmp ne ptr %15, null
  br i1 %16, label %17, label %74

17:                                               ; preds = %12
  store i32 0, ptr %1, align 4, !tbaa !9
  br label %18

18:                                               ; preds = %64, %17
  %19 = load i32, ptr %1, align 4, !tbaa !9
  %20 = load ptr, ptr @cp, align 8, !tbaa !11
  %21 = getelementptr inbounds nuw %struct.CPOOL, ptr %20, i32 0, i32 0
  %22 = load i32, ptr %21, align 8, !tbaa !25
  %23 = icmp ult i32 %19, %22
  br i1 %23, label %24, label %67

24:                                               ; preds = %18
  %25 = load ptr, ptr @cp, align 8, !tbaa !11
  %26 = getelementptr inbounds nuw %struct.CPOOL, ptr %25, i32 0, i32 3
  %27 = load ptr, ptr %26, align 8, !tbaa !26
  %28 = load i32, ptr %1, align 4, !tbaa !9
  %29 = zext i32 %28 to i64
  %30 = getelementptr inbounds nuw %struct.CP_ENTRY, ptr %27, i64 %29
  %31 = getelementptr inbounds nuw %struct.CP_ENTRY, ptr %30, i32 0, i32 1
  %32 = load ptr, ptr %31, align 8, !tbaa !42
  %33 = icmp ne ptr %32, null
  br i1 %33, label %34, label %43

34:                                               ; preds = %24
  %35 = load ptr, ptr @cp, align 8, !tbaa !11
  %36 = getelementptr inbounds nuw %struct.CPOOL, ptr %35, i32 0, i32 3
  %37 = load ptr, ptr %36, align 8, !tbaa !26
  %38 = load i32, ptr %1, align 4, !tbaa !9
  %39 = zext i32 %38 to i64
  %40 = getelementptr inbounds nuw %struct.CP_ENTRY, ptr %37, i64 %39
  %41 = getelementptr inbounds nuw %struct.CP_ENTRY, ptr %40, i32 0, i32 1
  %42 = load ptr, ptr %41, align 8, !tbaa !42
  call void @freeaddrinfo(ptr noundef %42) #9
  br label %63

43:                                               ; preds = %24
  %44 = load ptr, ptr @cp, align 8, !tbaa !11
  %45 = getelementptr inbounds nuw %struct.CPOOL, ptr %44, i32 0, i32 3
  %46 = load ptr, ptr %45, align 8, !tbaa !26
  %47 = load i32, ptr %1, align 4, !tbaa !9
  %48 = zext i32 %47 to i64
  %49 = getelementptr inbounds nuw %struct.CP_ENTRY, ptr %46, i64 %48
  %50 = getelementptr inbounds nuw %struct.CP_ENTRY, ptr %49, i32 0, i32 0
  %51 = load ptr, ptr %50, align 8, !tbaa !40
  %52 = icmp ne ptr %51, null
  br i1 %52, label %53, label %62

53:                                               ; preds = %43
  %54 = load ptr, ptr @cp, align 8, !tbaa !11
  %55 = getelementptr inbounds nuw %struct.CPOOL, ptr %54, i32 0, i32 3
  %56 = load ptr, ptr %55, align 8, !tbaa !26
  %57 = load i32, ptr %1, align 4, !tbaa !9
  %58 = zext i32 %57 to i64
  %59 = getelementptr inbounds nuw %struct.CP_ENTRY, ptr %56, i64 %58
  %60 = getelementptr inbounds nuw %struct.CP_ENTRY, ptr %59, i32 0, i32 0
  %61 = load ptr, ptr %60, align 8, !tbaa !40
  call void @free(ptr noundef %61) #9
  br label %62

62:                                               ; preds = %53, %43
  br label %63

63:                                               ; preds = %62, %34
  br label %64

64:                                               ; preds = %63
  %65 = load i32, ptr %1, align 4, !tbaa !9
  %66 = add i32 %65, 1
  store i32 %66, ptr %1, align 4, !tbaa !9
  br label %18

67:                                               ; preds = %18
  br label %68

68:                                               ; preds = %69, %67
  br i1 false, label %69, label %70

69:                                               ; preds = %68
  br label %68

70:                                               ; preds = %68
  %71 = load ptr, ptr @cp, align 8, !tbaa !11
  %72 = getelementptr inbounds nuw %struct.CPOOL, ptr %71, i32 0, i32 3
  %73 = load ptr, ptr %72, align 8, !tbaa !26
  call void @free(ptr noundef %73) #9
  br label %74

74:                                               ; preds = %70, %12
  %75 = load ptr, ptr @cp, align 8, !tbaa !11
  call void @free(ptr noundef %75) #9
  store ptr null, ptr @cp, align 8, !tbaa !11
  br label %76

76:                                               ; preds = %74, %9
  call void @llvm.lifetime.end.p0(i64 4, ptr %1) #9
  ret void
}