; Function Attrs: nounwind uwtable
define dso_local void @cpool_free() local_unnamed_addr #0 {
  %.b = load i1, ptr @quitting, align 4
  br i1 %.b, label %1, label %6

1:                                                ; preds = %0
  %2 = tail call i32 (i32, ptr, ...) @logg(i32 noundef 2, ptr noundef nonnull @.str.6) #13
  store i1 false, ptr @quitting, align 4
  %3 = tail call i32 @pthread_cond_signal(ptr noundef nonnull @mon_cond) #13
  %4 = load i64, ptr @probe_th, align 8, !tbaa !47
  %5 = tail call i32 @pthread_join(i64 noundef %4, ptr noundef null) #13
  br label %6

6:                                                ; preds = %1, %0
  %7 = load ptr, ptr @cp, align 8, !tbaa !4
  %.not = icmp eq ptr %7, null
  br i1 %.not, label %30, label %8

8:                                                ; preds = %6
  %9 = getelementptr inbounds nuw i8, ptr %7, i64 16
  %10 = load ptr, ptr %9, align 8, !tbaa !17
  %.not9 = icmp eq ptr %10, null
  br i1 %.not9, label %28, label %.preheader

.preheader:                                       ; preds = %8
  %11 = load i32, ptr %7, align 8, !tbaa !20
  %.not13 = icmp eq i32 %11, 0
  br i1 %.not13, label %._crit_edge, label %.lr.ph

.lr.ph:                                           ; preds = %.preheader, %22
  %indvars.iv = phi i64 [ %indvars.iv.next, %22 ], [ 0, %.preheader ]
  %12 = phi ptr [ %23, %22 ], [ %7, %.preheader ]
  %13 = getelementptr inbounds nuw i8, ptr %12, i64 16
  %14 = load ptr, ptr %13, align 8, !tbaa !17
  %15 = getelementptr inbounds nuw %struct.CP_ENTRY, ptr %14, i64 %indvars.iv
  %16 = getelementptr inbounds nuw i8, ptr %15, i64 8
  %17 = load ptr, ptr %16, align 8, !tbaa !35
  %.not10 = icmp eq ptr %17, null
  br i1 %.not10, label %19, label %18

18:                                               ; preds = %.lr.ph
  tail call void @freeaddrinfo(ptr noundef nonnull %17) #13
  br label %22

19:                                               ; preds = %.lr.ph
  %20 = load ptr, ptr %15, align 8, !tbaa !33
  %.not11 = icmp eq ptr %20, null
  br i1 %.not11, label %22, label %21

21:                                               ; preds = %19
  tail call void @free(ptr noundef nonnull %20) #13
  br label %22

22:                                               ; preds = %18, %21, %19
  %indvars.iv.next = add nuw nsw i64 %indvars.iv, 1
  %23 = load ptr, ptr @cp, align 8, !tbaa !4
  %24 = load i32, ptr %23, align 8, !tbaa !20
  %25 = zext i32 %24 to i64
  %26 = icmp samesign ult i64 %indvars.iv.next, %25
  br i1 %26, label %.lr.ph, label %._crit_edge.loopexit

._crit_edge.loopexit:                             ; preds = %22
  %.phi.trans.insert = getelementptr inbounds nuw i8, ptr %23, i64 16
  %.pre = load ptr, ptr %.phi.trans.insert, align 8, !tbaa !17
  br label %._crit_edge

._crit_edge:                                      ; preds = %._crit_edge.loopexit, %.preheader
  %27 = phi ptr [ %10, %.preheader ], [ %.pre, %._crit_edge.loopexit ]
  tail call void @free(ptr noundef %27) #13
  %.pre16 = load ptr, ptr @cp, align 8, !tbaa !4
  br label %28

28:                                               ; preds = %._crit_edge, %8
  %29 = phi ptr [ %.pre16, %._crit_edge ], [ %7, %8 ]
  tail call void @free(ptr noundef %29) #13
  store ptr null, ptr @cp, align 8, !tbaa !4
  br label %30

30:                                               ; preds = %28, %6
  ret void
}